target datalayout = "e-m:e-p270:32:32-p271:32:32-p272:64:64-i64:64-i128:128-f80:128-n8:16:32:64-S128"
target triple = "x86_64-pc-linux-gnu"

%struct.lua_TValue = type { %union.Value, [1 x i32], i32 }
%union.Value = type { ptr }

; Function Attrs: mustprogress uwtable
define hidden noundef i32 @_Z13luaV_tostringP9lua_StateP10lua_TValue(ptr noundef %0, ptr noundef %1) #0 {
  %3 = alloca i32, align 4
  %4 = alloca ptr, align 8
  %5 = alloca ptr, align 8
  %6 = alloca [48 x i8], align 16
  %7 = alloca double, align 8
  %8 = alloca ptr, align 8
  %9 = alloca ptr, align 8
  store ptr %0, ptr %4, align 8, !tbaa !15
  store ptr %1, ptr %5, align 8, !tbaa !4
  %10 = load ptr, ptr %5, align 8, !tbaa !4
  %11 = getelementptr inbounds nuw %struct.lua_TValue, ptr %10, i32 0, i32 2
  %12 = load i32, ptr %11, align 4, !tbaa !9
  %13 = icmp eq i32 %12, 3
  br i1 %13, label %15, label %14

14:                                               ; preds = %2
  store i32 0, ptr %3, align 4
  br label %35

15:                                               ; preds = %2
  call void @llvm.lifetime.start.p0(i64 48, ptr %6) #11
  call void @llvm.lifetime.start.p0(i64 8, ptr %7) #11
  %16 = load ptr, ptr %5, align 8, !tbaa !4
  %17 = getelementptr inbounds nuw %struct.lua_TValue, ptr %16, i32 0, i32 0
  %18 = load double, ptr %17, align 8, !tbaa !12
  store double %18, ptr %7, align 8, !tbaa !13
  call void @llvm.lifetime.start.p0(i64 8, ptr %8) #11
  %19 = getelementptr inbounds [48 x i8], ptr %6, i64 0, i64 0
  %20 = load double, ptr %7, align 8, !tbaa !13
  %21 = call noundef ptr @_Z12luai_num2strPcd(ptr noundef %19, double noundef %20)
  store ptr %21, ptr %8, align 8, !tbaa !17
  call void @llvm.lifetime.start.p0(i64 8, ptr %9) #11
  %22 = load ptr, ptr %5, align 8, !tbaa !4
  store ptr %22, ptr %9, align 8, !tbaa !4
  %23 = load ptr, ptr %4, align 8, !tbaa !15
  %24 = getelementptr inbounds [48 x i8], ptr %6, i64 0, i64 0
  %25 = load ptr, ptr %8, align 8, !tbaa !17
  %26 = getelementptr inbounds [48 x i8], ptr %6, i64 0, i64 0
  %27 = ptrtoint ptr %25 to i64
  %28 = ptrtoint ptr %26 to i64
  %29 = sub i64 %27, %28
  %30 = call noundef ptr @_Z12luaS_newlstrP9lua_StatePKcm(ptr noundef %23, ptr noundef %24, i64 noundef %29)
  %31 = load ptr, ptr %9, align 8, !tbaa !4
  %32 = getelementptr inbounds nuw %struct.lua_TValue, ptr %31, i32 0, i32 0
  store ptr %30, ptr %32, align 8, !tbaa !12
  %33 = load ptr, ptr %9, align 8, !tbaa !4
  %34 = getelementptr inbounds nuw %struct.lua_TValue, ptr %33, i32 0, i32 2
  store i32 5, ptr %34, align 4, !tbaa !9
  call void @llvm.lifetime.end.p0(i64 8, ptr %9) #11
  store i32 1, ptr %3, align 4
  call void @llvm.lifetime.end.p0(i64 8, ptr %8) #11
  call void @llvm.lifetime.end.p0(i64 8, ptr %7) #11
  call void @llvm.lifetime.end.p0(i64 48, ptr %6) #11
  br label %35

35:                                               ; preds = %15, %14
  %36 = load i32, ptr %3, align 4
  ret i32 %36
}