; Function Attrs: mustprogress uwtable
define hidden noundef range(i32 0, 2) i32 @_Z13luaV_tostringP9lua_StateP10lua_TValue(ptr noundef %0, ptr noundef captures(none) %1) local_unnamed_addr #0 {
  %3 = alloca [48 x i8], align 16
  %4 = getelementptr inbounds nuw i8, ptr %1, i64 12
  %5 = load i32, ptr %4, align 4, !tbaa !4
  %6 = icmp eq i32 %5, 3
  br i1 %6, label %7, label %14

7:                                                ; preds = %2
  call void @llvm.lifetime.start.p0(i64 48, ptr nonnull %3) #11
  %8 = load double, ptr %1, align 8, !tbaa !9
  %9 = call noundef ptr @_Z12luai_num2strPcd(ptr noundef nonnull %3, double noundef %8)
  %10 = ptrtoint ptr %9 to i64
  %11 = ptrtoint ptr %3 to i64
  %12 = sub i64 %10, %11
  %13 = call noundef ptr @_Z12luaS_newlstrP9lua_StatePKcm(ptr noundef %0, ptr noundef nonnull %3, i64 noundef %12)
  store ptr %13, ptr %1, align 8, !tbaa !9
  store i32 5, ptr %4, align 4, !tbaa !4
  call void @llvm.lifetime.end.p0(i64 48, ptr nonnull %3) #11
  br label %14

14:                                               ; preds = %2, %7
  %.0 = phi i32 [ 1, %7 ], [ 0, %2 ]
  ret i32 %.0
}